target datalayout = "e-m:e-p270:32:32-p271:32:32-p272:64:64-i64:64-i128:128-f80:128-n8:16:32:64-S128"
target triple = "x86_64-pc-linux-gnu"

%struct.expert_field = type { i32, i32 }

@hf_nfapi_dl_cqi_pmi_size_rank_1 = internal global i32 0, align 4
@hf_nfapi_dl_cqi_pmi_size_rank_greater_1 = internal global i32 0, align 4
@hf_nfapi_ri_size = internal global i32 0, align 4
@hf_nfapi_delta_offset_cqi = internal global i32 0, align 4
@hf_nfapi_delta_offset_ri = internal global i32 0, align 4
@ei_invalid_range = internal global %struct.expert_field zeroinitializer, align 4
@.str.2095 = private unnamed_addr constant [29 x i8] c"Invalid ri size value [0..3]\00", align 1
@.str.2096 = private unnamed_addr constant [39 x i8] c"Invalid delta offset cqi value [0..15]\00", align 1
@.str.2097 = private unnamed_addr constant [38 x i8] c"Invalid delta offset ri value [0..15]\00", align 1

; Function Attrs: nounwind uwtable
define internal void @dissect_ul_config_cqi_ri_info_rel8_value(ptr noundef %0, ptr noundef %1) #0 {
  %3 = alloca ptr, align 8
  %4 = alloca ptr, align 8
  %5 = alloca ptr, align 8
  %6 = alloca i32, align 4
  store ptr %0, ptr %3, align 8
  store ptr %1, ptr %4, align 8
  %7 = load ptr, ptr %3, align 8
  %8 = load i32, ptr @hf_nfapi_dl_cqi_pmi_size_rank_1, align 4
  %9 = call ptr @ptvcursor_add(ptr noundef %7, i32 noundef %8, i32 noundef 1, i32 noundef 0)
  %10 = load ptr, ptr %3, align 8
  %11 = load i32, ptr @hf_nfapi_dl_cqi_pmi_size_rank_greater_1, align 4
  %12 = call ptr @ptvcursor_add(ptr noundef %10, i32 noundef %11, i32 noundef 1, i32 noundef 0)
  %13 = load ptr, ptr %3, align 8
  %14 = load i32, ptr @hf_nfapi_ri_size, align 4
  %15 = call ptr @ptvcursor_add_ret_uint(ptr noundef %13, i32 noundef %14, i32 noundef 1, i32 noundef 0, ptr noundef %6)
  store ptr %15, ptr %5, align 8
  %16 = load i32, ptr %6, align 4
  %17 = icmp ugt i32 %16, 3
  br i1 %17, label %18, label %22

18:                                               ; preds = %2
  %19 = load ptr, ptr %4, align 8
  %20 = load ptr, ptr %5, align 8
  %21 = call ptr (ptr, ptr, ptr, ptr, ...) @expert_add_info_format(ptr noundef %19, ptr noundef %20, ptr noundef @ei_invalid_range, ptr noundef @.str.2095)
  br label %22

22:                                               ; preds = %18, %2
  %23 = load ptr, ptr %3, align 8
  %24 = load i32, ptr @hf_nfapi_delta_offset_cqi, align 4
  %25 = call ptr @ptvcursor_add_ret_uint(ptr noundef %23, i32 noundef %24, i32 noundef 1, i32 noundef 0, ptr noundef %6)
  store ptr %25, ptr %5, align 8
  %26 = load i32, ptr %6, align 4
  %27 = icmp ugt i32 %26, 15
  br i1 %27, label %28, label %32

28:                                               ; preds = %22
  %29 = load ptr, ptr %4, align 8
  %30 = load ptr, ptr %5, align 8
  %31 = call ptr (ptr, ptr, ptr, ptr, ...) @expert_add_info_format(ptr noundef %29, ptr noundef %30, ptr noundef @ei_invalid_range, ptr noundef @.str.2096)
  br label %32

32:                                               ; preds = %28, %22
  %33 = load ptr, ptr %3, align 8
  %34 = load i32, ptr @hf_nfapi_delta_offset_ri, align 4
  %35 = call ptr @ptvcursor_add_ret_uint(ptr noundef %33, i32 noundef %34, i32 noundef 1, i32 noundef 0, ptr noundef %6)
  store ptr %35, ptr %5, align 8
  %36 = load i32, ptr %6, align 4
  %37 = icmp ugt i32 %36, 15
  br i1 %37, label %38, label %42

38:                                               ; preds = %32
  %39 = load ptr, ptr %4, align 8
  %40 = load ptr, ptr %5, align 8
  %41 = call ptr (ptr, ptr, ptr, ptr, ...) @expert_add_info_format(ptr noundef %39, ptr noundef %40, ptr noundef @ei_invalid_range, ptr noundef @.str.2097)
  br label %42

42:                                               ; preds = %38, %32
  ret void
}