; Function Attrs: nounwind uwtable
define internal void @dissect_ul_config_cqi_ri_info_rel8_value(ptr noundef %0, ptr noundef %1) #0 {
  %3 = alloca i32, align 4
  %4 = load i32, ptr @hf_nfapi_dl_cqi_pmi_size_rank_1, align 4
  %5 = tail call ptr @ptvcursor_add(ptr noundef %0, i32 noundef %4, i32 noundef 1, i32 noundef 0) #7
  %6 = load i32, ptr @hf_nfapi_dl_cqi_pmi_size_rank_greater_1, align 4
  %7 = tail call ptr @ptvcursor_add(ptr noundef %0, i32 noundef %6, i32 noundef 1, i32 noundef 0) #7
  %8 = load i32, ptr @hf_nfapi_ri_size, align 4
  %9 = call ptr @ptvcursor_add_ret_uint(ptr noundef %0, i32 noundef %8, i32 noundef 1, i32 noundef 0, ptr noundef nonnull %3) #7
  %10 = load i32, ptr %3, align 4
  %11 = icmp ugt i32 %10, 3
  br i1 %11, label %12, label %14

12:                                               ; preds = %2
  %13 = call ptr (ptr, ptr, ptr, ptr, ...) @expert_add_info_format(ptr noundef %1, ptr noundef %9, ptr noundef nonnull @ei_invalid_range, ptr noundef nonnull @.str.2095) #7
  br label %14

14:                                               ; preds = %12, %2
  %15 = load i32, ptr @hf_nfapi_delta_offset_cqi, align 4
  %16 = call ptr @ptvcursor_add_ret_uint(ptr noundef %0, i32 noundef %15, i32 noundef 1, i32 noundef 0, ptr noundef nonnull %3) #7
  %17 = load i32, ptr %3, align 4
  %18 = icmp ugt i32 %17, 15
  br i1 %18, label %19, label %21

19:                                               ; preds = %14
  %20 = call ptr (ptr, ptr, ptr, ptr, ...) @expert_add_info_format(ptr noundef %1, ptr noundef %16, ptr noundef nonnull @ei_invalid_range, ptr noundef nonnull @.str.2096) #7
  br label %21

21:                                               ; preds = %19, %14
  %22 = load i32, ptr @hf_nfapi_delta_offset_ri, align 4
  %23 = call ptr @ptvcursor_add_ret_uint(ptr noundef %0, i32 noundef %22, i32 noundef 1, i32 noundef 0, ptr noundef nonnull %3) #7
  %24 = load i32, ptr %3, align 4
  %25 = icmp ugt i32 %24, 15
  br i1 %25, label %26, label %28

26:                                               ; preds = %21
  %27 = call ptr (ptr, ptr, ptr, ptr, ...) @expert_add_info_format(ptr noundef %1, ptr noundef %23, ptr noundef nonnull @ei_invalid_range, ptr noundef nonnull @.str.2097) #7
  br label %28

28:                                               ; preds = %26, %21
  ret void
}